(dp1
S'40155181'
p2
ccopy_reg
_reconstructor
p3
(cshop_user
ShopUser
p4
c__builtin__
object
p5
NtRp6
(dp7
S'_proctor'
p8
I01
sS'_email'
p9
S'email'
p10
sS'validated_user_data'
p11
(lp12
S'Taylor Peterson'
p13
acdatetime
datetime
p14
(S'\x07\xde\t\x0c\x00\x00\x00\x00\x00\x00'
tRp15
aS'Yes'
p16
ag10
ag2
aI0
aI01
asS'id_number'
p17
g2
sS'_name'
p18
g13
sS'debt'
p19
I0
sS'_test_date'
p20
g15
sbsS'40159063'
p21
g3
(g4
g5
NtRp22
(dp23
g8
I00
sg9
S'email'
p24
sg11
(lp25
S'Richard Piersall'
p26
ag14
(S'\x07\xdd\t\x0c\x00\x00\x00\x00\x00\x00'
tRp27
aS'Yes'
p28
ag24
ag21
aI3
aI00
asg17
g21
sg18
g26
sg19
I3
sg20
g27
sbsS'7777777'
p29
g3
(g4
g5
NtRp30
(dp31
g8
I00
sg9
S'email'
p32
sg11
(lp33
S'Joe Schmoe'
p34
ag14
(S'\x07\xdf\x01\x1a\x00\x00\x00\x00\x00\x00'
tRp35
aS'Yes'
p36
ag32
ag29
aI0
aI00
asg17
g29
sg18
g34
sg19
I0
sg20
g35
sbsS'1111111'
p37
g3
(g4
g5
NtRp38
(dp39
g8
I01
sg9
S'email'
p40
sg11
(lp41
S'POD Joe'
p42
ag14
(S'\x07\xdf\x01\x1a\x00\x00\x00\x00\x00\x00'
tRp43
aS'Yes'
p44
ag40
ag37
aI0
aI01
asg17
g37
sg18
g42
sg19
I0
sg20
g43
sbsS'nope'
p45
g3
(g4
g5
NtRp46
(dp47
g8
I00
sg9
S'email'
p48
sg11
(lp49
S'Invalid'
p50
ag14
(S'\x07\xda\x01\x1a\x00\x00\x00\x00\x00\x00'
tRp51
aS'Yes'
p52
ag48
ag45
aI0
aI00
asg17
g45
sg18
g50
sg19
I0
sg20
g51
sbsS'101010'
p53
g3
(g4
g5
NtRp54
(dp55
g8
I01
sg9
S'email'
p56
sg11
(lp57
S'Proctor Joe'
p58
ag14
(S'\x07\xdf\x01\x1a\x00\x00\x00\x00\x00\x00'
tRp59
aS'Yes'
p60
ag56
ag53
aI0
aI01
asg17
g53
sg18
g58
sg19
I0
sg20
g59
sbs.